; Function Attrs: mustprogress uwtable
define hidden void @_ZN19OpenColorIO_v2_5dev21CameraLog2LinRendererC2ERSt10shared_ptrIKNS_9LogOpDataEE(ptr noundef nonnull align 8 dereferenceable(200) initializes((0, 12), (16, 88)) %0, ptr noundef nonnull readonly align 8 captures(none) dereferenceable(16) %1) unnamed_addr #3 align 2 personality ptr @__gxx_personality_v0 {
  %3 = getelementptr inbounds nuw i8, ptr %0, i64 8
  store float 2.000000e+00, ptr %3, align 8, !tbaa !96
  %4 = getelementptr inbounds nuw i8, ptr %0, i64 16
  tail call void @llvm.memset.p0.i64(ptr noundef nonnull align 8 dereferenceable(72) %4, i8 0, i64 72, i1 false)
  store ptr getelementptr inbounds nuw inrange(-16, 56) (i8, ptr @_ZTVN19OpenColorIO_v2_5dev21CameraLog2LinRendererE, i64 16), ptr %0, align 8, !tbaa !44
  invoke void @_ZN19OpenColorIO_v2_5dev21CameraL2LBaseRenderer10updateDataERSt10shared_ptrIKNS_9LogOpDataEE(ptr noundef nonnull align 8 dereferenceable(200) %0, ptr noundef nonnull readonly align 8 dereferenceable(16) %1)
          to label %5 unwind label %94

5:                                                ; preds = %2
  %6 = getelementptr inbounds nuw i8, ptr %0, i64 124
  %7 = load float, ptr %6, align 4, !tbaa !124
  %8 = load ptr, ptr %4, align 8, !tbaa !108
  %9 = load double, ptr %8, align 8, !tbaa !119
  %10 = fptrunc double %9 to float
  %11 = fdiv float %7, %10
  %12 = getelementptr inbounds nuw i8, ptr %0, i64 128
  store float %11, ptr %12, align 8, !tbaa !111
  %13 = getelementptr inbounds nuw i8, ptr %0, i64 40
  %14 = load ptr, ptr %13, align 8, !tbaa !108
  %15 = load double, ptr %14, align 8, !tbaa !119
  %16 = fptrunc double %15 to float
  %17 = fdiv float %7, %16
  %18 = getelementptr inbounds nuw i8, ptr %0, i64 132
  store float %17, ptr %18, align 4, !tbaa !111
  %19 = getelementptr inbounds nuw i8, ptr %0, i64 64
  %20 = load ptr, ptr %19, align 8, !tbaa !108
  %21 = load double, ptr %20, align 8, !tbaa !119
  %22 = fptrunc double %21 to float
  %23 = fdiv float %7, %22
  %24 = getelementptr inbounds nuw i8, ptr %0, i64 136
  store float %23, ptr %24, align 8, !tbaa !111
  %25 = getelementptr inbounds nuw i8, ptr %8, i64 8
  %26 = load double, ptr %25, align 8, !tbaa !119
  %27 = fptrunc double %26 to float
  %28 = fneg float %27
  %29 = getelementptr inbounds nuw i8, ptr %0, i64 140
  store float %28, ptr %29, align 4, !tbaa !111
  %30 = getelementptr inbounds nuw i8, ptr %14, i64 8
  %31 = load double, ptr %30, align 8, !tbaa !119
  %32 = fptrunc double %31 to float
  %33 = fneg float %32
  %34 = getelementptr inbounds nuw i8, ptr %0, i64 144
  store float %33, ptr %34, align 8, !tbaa !111
  %35 = getelementptr inbounds nuw i8, ptr %20, i64 8
  %36 = load double, ptr %35, align 8, !tbaa !119
  %37 = fptrunc double %36 to float
  %38 = fneg float %37
  %39 = getelementptr inbounds nuw i8, ptr %0, i64 148
  store float %38, ptr %39, align 4, !tbaa !111
  %40 = getelementptr inbounds nuw i8, ptr %8, i64 24
  %41 = load double, ptr %40, align 8, !tbaa !119
  %42 = fptrunc double %41 to float
  %43 = fneg float %42
  %44 = getelementptr inbounds nuw i8, ptr %0, i64 152
  store float %43, ptr %44, align 8, !tbaa !111
  %45 = getelementptr inbounds nuw i8, ptr %14, i64 24
  %46 = load double, ptr %45, align 8, !tbaa !119
  %47 = fptrunc double %46 to float
  %48 = fneg float %47
  %49 = getelementptr inbounds nuw i8, ptr %0, i64 156
  store float %48, ptr %49, align 4, !tbaa !111
  %50 = getelementptr inbounds nuw i8, ptr %20, i64 24
  %51 = load double, ptr %50, align 8, !tbaa !119
  %52 = fptrunc double %51 to float
  %53 = fneg float %52
  %54 = getelementptr inbounds nuw i8, ptr %0, i64 160
  store float %53, ptr %54, align 8, !tbaa !111
  %55 = getelementptr inbounds nuw i8, ptr %8, i64 16
  %56 = load double, ptr %55, align 8, !tbaa !119
  %57 = fptrunc double %56 to float
  %58 = fdiv float 1.000000e+00, %57
  %59 = getelementptr inbounds nuw i8, ptr %0, i64 164
  store float %58, ptr %59, align 4, !tbaa !111
  %60 = getelementptr inbounds nuw i8, ptr %14, i64 16
  %61 = load double, ptr %60, align 8, !tbaa !119
  %62 = fptrunc double %61 to float
  %63 = fdiv float 1.000000e+00, %62
  %64 = getelementptr inbounds nuw i8, ptr %0, i64 168
  store float %63, ptr %64, align 8, !tbaa !111
  %65 = getelementptr inbounds nuw i8, ptr %20, i64 16
  %66 = load double, ptr %65, align 8, !tbaa !119
  %67 = fptrunc double %66 to float
  %68 = fdiv float 1.000000e+00, %67
  %69 = getelementptr inbounds nuw i8, ptr %0, i64 172
  store float %68, ptr %69, align 4, !tbaa !111
  %70 = getelementptr inbounds nuw i8, ptr %0, i64 100
  %71 = load float, ptr %70, align 4, !tbaa !111
  %72 = fdiv float 1.000000e+00, %71
  %73 = getelementptr inbounds nuw i8, ptr %0, i64 176
  store float %72, ptr %73, align 8, !tbaa !111
  %74 = getelementptr inbounds nuw i8, ptr %0, i64 104
  %75 = load float, ptr %74, align 8, !tbaa !111
  %76 = fdiv float 1.000000e+00, %75
  %77 = getelementptr inbounds nuw i8, ptr %0, i64 180
  store float %76, ptr %77, align 4, !tbaa !111
  %78 = getelementptr inbounds nuw i8, ptr %0, i64 108
  %79 = load float, ptr %78, align 4, !tbaa !111
  %80 = fdiv float 1.000000e+00, %79
  %81 = getelementptr inbounds nuw i8, ptr %0, i64 184
  store float %80, ptr %81, align 8, !tbaa !111
  %82 = getelementptr inbounds nuw i8, ptr %0, i64 112
  %83 = load float, ptr %82, align 8, !tbaa !111
  %84 = fneg float %83
  %85 = getelementptr inbounds nuw i8, ptr %0, i64 188
  store float %84, ptr %85, align 4, !tbaa !111
  %86 = getelementptr inbounds nuw i8, ptr %0, i64 116
  %87 = load float, ptr %86, align 4, !tbaa !111
  %88 = fneg float %87
  %89 = getelementptr inbounds nuw i8, ptr %0, i64 192
  store float %88, ptr %89, align 8, !tbaa !111
  %90 = getelementptr inbounds nuw i8, ptr %0, i64 120
  %91 = load float, ptr %90, align 8, !tbaa !111
  %92 = fneg float %91
  %93 = getelementptr inbounds nuw i8, ptr %0, i64 196
  store float %92, ptr %93, align 4, !tbaa !111
  ret void

94:                                               ; preds = %2
  %95 = landingpad { ptr, i32 }
          cleanup
  tail call void @_ZN19OpenColorIO_v2_5dev15L2LBaseRendererD2Ev(ptr noundef nonnull align 8 dereferenceable(128) %0) #26
  resume { ptr, i32 } %95
}